; ModuleID = 'source-C-CXX/8/134.c'
source_filename = "source-C-CXX/8/134.c"
target datalayout = "e-m:e-p270:32:32-p271:32:32-p272:64:64-i64:64-f80:128-n8:16:32:64-S128"
target triple = "x86_64-pc-linux-gnu"

@.str = private unnamed_addr constant [3 x i8] c"%d\00", align 1
@.str.1 = private unnamed_addr constant [6 x i8] c"%s %d\00", align 1

; Function Attrs: nofree nounwind sspstrong uwtable
define dso_local i32 @main() local_unnamed_addr #0 {
  %1 = alloca [100 x i32], align 16
  %2 = alloca i32, align 4
  %3 = alloca [100 x [100 x i8]], align 16
  %4 = alloca [100 x i8], align 16
  %5 = bitcast [100 x i32]* %1 to i8*
  call void @llvm.lifetime.start.p0i8(i64 400, i8* nonnull %5) #5
  %6 = bitcast i32* %2 to i8*
  call void @llvm.lifetime.start.p0i8(i64 4, i8* nonnull %6) #5
  %7 = getelementptr inbounds [100 x [100 x i8]], [100 x [100 x i8]]* %3, i64 0, i64 0, i64 0
  call void @llvm.lifetime.start.p0i8(i64 10000, i8* nonnull %7) #5
  %8 = call i32 (i8*, ...) @__isoc99_scanf(i8* getelementptr inbounds ([3 x i8], [3 x i8]* @.str, i64 0, i64 0), i32* nonnull %2)
  %9 = load i32, i32* %2, align 4, !tbaa !5
  %10 = icmp sgt i32 %9, 0
  br i1 %10, label %13, label %11

11:                                               ; preds = %0
  %12 = getelementptr inbounds [100 x i8], [100 x i8]* %4, i64 0, i64 0
  call void @llvm.lifetime.start.p0i8(i64 100, i8* nonnull %12) #5
  br label %71

13:                                               ; preds = %0, %13
  %14 = phi i64 [ %18, %13 ], [ 0, %0 ]
  %15 = getelementptr inbounds [100 x [100 x i8]], [100 x [100 x i8]]* %3, i64 0, i64 %14, i64 0
  %16 = getelementptr inbounds [100 x i32], [100 x i32]* %1, i64 0, i64 %14
  %17 = call i32 (i8*, ...) @__isoc99_scanf(i8* getelementptr inbounds ([6 x i8], [6 x i8]* @.str.1, i64 0, i64 0), i8* nonnull %15, i32* nonnull %16)
  %18 = add nuw nsw i64 %14, 1
  %19 = load i32, i32* %2, align 4, !tbaa !5
  %20 = sext i32 %19 to i64
  %21 = icmp slt i64 %18, %20
  br i1 %21, label %13, label %22, !llvm.loop !9

22:                                               ; preds = %13
  %23 = getelementptr inbounds [100 x i8], [100 x i8]* %4, i64 0, i64 0
  call void @llvm.lifetime.start.p0i8(i64 100, i8* nonnull %23) #5
  %24 = icmp slt i32 %19, 1
  br i1 %24, label %71, label %25

25:                                               ; preds = %22
  %26 = getelementptr inbounds [100 x i32], [100 x i32]* %1, i64 0, i64 0
  br label %27

27:                                               ; preds = %25, %60
  %28 = phi i32 [ %19, %25 ], [ %30, %60 ]
  %29 = phi i32 [ 1, %25 ], [ %61, %60 ]
  %30 = add i32 %28, -1
  %31 = icmp sgt i32 %19, %29
  br i1 %31, label %32, label %60

32:                                               ; preds = %27
  %33 = zext i32 %30 to i64
  %34 = load i32, i32* %26, align 16, !tbaa !5
  br label %37

35:                                               ; preds = %60
  %36 = icmp sgt i32 %19, 0
  br i1 %36, label %63, label %71

37:                                               ; preds = %32, %57
  %38 = phi i32 [ %34, %32 ], [ %58, %57 ]
  %39 = phi i64 [ 0, %32 ], [ %41, %57 ]
  %40 = getelementptr inbounds [100 x i32], [100 x i32]* %1, i64 0, i64 %39
  %41 = add nuw nsw i64 %39, 1
  %42 = getelementptr inbounds [100 x i32], [100 x i32]* %1, i64 0, i64 %41
  %43 = load i32, i32* %42, align 4, !tbaa !5
  %44 = icmp slt i32 %38, %43
  %45 = icmp sgt i32 %38, 59
  %46 = and i1 %45, %44
  br i1 %46, label %51, label %47

47:                                               ; preds = %37
  %48 = icmp slt i32 %38, 60
  %49 = icmp sgt i32 %43, 59
  %50 = select i1 %48, i1 %49, i1 false
  br i1 %50, label %51, label %57

51:                                               ; preds = %47, %37
  %52 = getelementptr inbounds [100 x [100 x i8]], [100 x [100 x i8]]* %3, i64 0, i64 %41, i64 0
  %53 = call i8* @strcpy(i8* noundef nonnull %23, i8* noundef nonnull %52) #5
  store i32 %38, i32* %42, align 4, !tbaa !5
  %54 = getelementptr inbounds [100 x [100 x i8]], [100 x [100 x i8]]* %3, i64 0, i64 %39, i64 0
  %55 = call i8* @strcpy(i8* noundef nonnull %52, i8* noundef nonnull %54) #5
  store i32 %43, i32* %40, align 4, !tbaa !5
  %56 = call i8* @strcpy(i8* noundef nonnull %54, i8* noundef nonnull %23) #5
  br label %57

57:                                               ; preds = %47, %51
  %58 = phi i32 [ %43, %47 ], [ %38, %51 ]
  %59 = icmp eq i64 %41, %33
  br i1 %59, label %60, label %37, !llvm.loop !11

60:                                               ; preds = %57, %27
  %61 = add nuw i32 %29, 1
  %62 = icmp eq i32 %29, %19
  br i1 %62, label %35, label %27, !llvm.loop !12

63:                                               ; preds = %35, %63
  %64 = phi i64 [ %67, %63 ], [ 0, %35 ]
  %65 = getelementptr inbounds [100 x [100 x i8]], [100 x [100 x i8]]* %3, i64 0, i64 %64, i64 0
  %66 = call i32 @puts(i8* nonnull %65)
  %67 = add nuw nsw i64 %64, 1
  %68 = load i32, i32* %2, align 4, !tbaa !5
  %69 = sext i32 %68 to i64
  %70 = icmp slt i64 %67, %69
  br i1 %70, label %63, label %71, !llvm.loop !13

71:                                               ; preds = %63, %22, %11, %35
  %72 = getelementptr inbounds [100 x i8], [100 x i8]* %4, i64 0, i64 0
  call void @llvm.lifetime.end.p0i8(i64 100, i8* nonnull %72) #5
  call void @llvm.lifetime.end.p0i8(i64 10000, i8* nonnull %7) #5
  call void @llvm.lifetime.end.p0i8(i64 4, i8* nonnull %6) #5
  call void @llvm.lifetime.end.p0i8(i64 400, i8* nonnull %5) #5
  ret i32 0
}

; Function Attrs: argmemonly mustprogress nofree nosync nounwind willreturn
declare void @llvm.lifetime.start.p0i8(i64 immarg, i8* nocapture) #1

; Function Attrs: nofree nounwind
declare noundef i32 @__isoc99_scanf(i8* nocapture noundef readonly, ...) local_unnamed_addr #2

; Function Attrs: argmemonly mustprogress nofree nounwind willreturn
declare i8* @strcpy(i8* noalias returned writeonly, i8* noalias nocapture readonly) local_unnamed_addr #3

; Function Attrs: argmemonly mustprogress nofree nosync nounwind willreturn
declare void @llvm.lifetime.end.p0i8(i64 immarg, i8* nocapture) #1

; Function Attrs: nofree nounwind
declare noundef i32 @puts(i8* nocapture noundef readonly) local_unnamed_addr #4


!llvm.module.flags = !{!0, !1, !2, !3}
!llvm.ident = !{!4}

!0 = !{i32 1, !"wchar_size", i32 4}
!1 = !{i32 7, !"PIC Level", i32 2}
!2 = !{i32 7, !"PIE Level", i32 2}
!3 = !{i32 7, !"uwtable", i32 1}
!4 = !{!"clang version 13.0.0"}
!5 = !{!6, !6, i64 0}
!6 = !{!"int", !7, i64 0}
!7 = !{!"omnipotent char", !8, i64 0}
!8 = !{!"Simple C/C++ TBAA"}
!9 = distinct !{!9, !10}
!10 = !{!"llvm.loop.mustprogress"}
!11 = distinct !{!11, !10}
!12 = distinct !{!12, !10}
!13 = distinct !{!13, !10}
